target datalayout = "e-m:e-p270:32:32-p271:32:32-p272:64:64-i64:64-i128:128-f80:128-n8:16:32:64-S128"
target triple = "x86_64-pc-linux-gnu"

%"class.google::protobuf::internal::MapFieldBase" = type <{ ptr, ptr, ptr, %"class.google::protobuf::internal::WrappedMutex", %"struct.std::atomic", [4 x i8] }>
%"class.google::protobuf::internal::WrappedMutex" = type { %"class.std::mutex" }
%"class.std::mutex" = type { %"class.std::__mutex_base" }
%"class.std::__mutex_base" = type { %union.pthread_mutex_t }
%union.pthread_mutex_t = type { %struct.__pthread_mutex_s }
%struct.__pthread_mutex_s = type { i32, i32, i32, i32, i32, i16, i16, %struct.__pthread_internal_list }
%struct.__pthread_internal_list = type { ptr, ptr }
%"struct.std::atomic" = type { i32 }

; Function Attrs: mustprogress nounwind uwtable
define linkonce_odr hidden void @_ZNSt6atomicIN6google8protobuf8internal12MapFieldBase5StateEE5storeES4_St12memory_order(ptr noundef nonnull align 4 dereferenceable(4) %0, i32 noundef %1, i32 noundef %2) #4 comdat align 2 {
  %4 = alloca ptr, align 8
  %5 = alloca i32, align 4
  %6 = alloca i32, align 4
  store ptr %0, ptr %4, align 8, !tbaa !22
  store i32 %1, ptr %5, align 4, !tbaa !21
  store i32 %2, ptr %6, align 4, !tbaa !24
  %7 = load ptr, ptr %4, align 8
  %8 = getelementptr inbounds nuw %"struct.std::atomic", ptr %7, i32 0, i32 0
  %9 = load i32, ptr %6, align 4, !tbaa !24
  switch i32 %9, label %10 [
    i32 3, label %12
    i32 5, label %14
  ]

10:                                               ; preds = %3
  %11 = load i32, ptr %5, align 4
  store atomic i32 %11, ptr %8 monotonic, align 4
  br label %16

12:                                               ; preds = %3
  %13 = load i32, ptr %5, align 4
  store atomic i32 %13, ptr %8 release, align 4
  br label %16

14:                                               ; preds = %3
  %15 = load i32, ptr %5, align 4
  store atomic i32 %15, ptr %8 seq_cst, align 4
  br label %16

16:                                               ; preds = %14, %12, %10
  ret void
}

; Function Attrs: mustprogress nounwind uwtable
define linkonce_odr hidden noundef i32 @_ZNKSt6atomicIN6google8protobuf8internal12MapFieldBase5StateEE4loadESt12memory_order(ptr noundef nonnull align 4 dereferenceable(4) %0, i32 noundef %1) #4 comdat align 2 {
  %3 = alloca ptr, align 8
  %4 = alloca i32, align 4
  %5 = alloca [4 x i8], align 4
  %6 = alloca ptr, align 8
  store ptr %0, ptr %3, align 8, !tbaa !22
  store i32 %1, ptr %4, align 4, !tbaa !24
  %7 = load ptr, ptr %3, align 8
  call void @llvm.lifetime.start.p0(i64 4, ptr %5) #3
  call void @llvm.lifetime.start.p0(i64 8, ptr %6) #3
  %8 = getelementptr inbounds [4 x i8], ptr %5, i64 0, i64 0
  store ptr %8, ptr %6, align 8, !tbaa !26
  %9 = getelementptr inbounds nuw %"struct.std::atomic", ptr %7, i32 0, i32 0
  %10 = load i32, ptr %4, align 4, !tbaa !24
  %11 = load ptr, ptr %6, align 8, !tbaa !26
  switch i32 %10, label %12 [
    i32 1, label %14
    i32 2, label %14
    i32 5, label %16
  ]

12:                                               ; preds = %2
  %13 = load atomic i32, ptr %9 monotonic, align 4
  store i32 %13, ptr %11, align 4
  br label %18

14:                                               ; preds = %2, %2
  %15 = load atomic i32, ptr %9 acquire, align 4
  store i32 %15, ptr %11, align 4
  br label %18

16:                                               ; preds = %2
  %17 = load atomic i32, ptr %9 seq_cst, align 4
  store i32 %17, ptr %11, align 4
  br label %18

18:                                               ; preds = %16, %14, %12
  %19 = load ptr, ptr %6, align 8, !tbaa !26
  %20 = load i32, ptr %19, align 4, !tbaa !21
  call void @llvm.lifetime.end.p0(i64 8, ptr %6) #3
  call void @llvm.lifetime.end.p0(i64 4, ptr %5) #3
  ret i32 %20
}

; Function Attrs: mustprogress nounwind uwtable
define hidden void @_ZN6google8protobuf8internal12MapFieldBase9SwapStateEPS2_(ptr noundef nonnull align 8 dereferenceable(68) %0, ptr noundef %1) #4 align 2 {
  %3 = alloca ptr, align 8
  %4 = alloca ptr, align 8
  %5 = alloca i32, align 4
  %6 = alloca i32, align 4
  store ptr %0, ptr %3, align 8, !tbaa !8
  store ptr %1, ptr %4, align 8, !tbaa !8
  %7 = load ptr, ptr %3, align 8
  call void @llvm.lifetime.start.p0(i64 4, ptr %5) #3
  %8 = load ptr, ptr %4, align 8, !tbaa !8
  %9 = getelementptr inbounds nuw %"class.google::protobuf::internal::MapFieldBase", ptr %8, i32 0, i32 4
  %10 = call noundef i32 @_ZNKSt6atomicIN6google8protobuf8internal12MapFieldBase5StateEE4loadESt12memory_order(ptr noundef nonnull align 4 dereferenceable(4) %9, i32 noundef 0) #3
  store i32 %10, ptr %5, align 4, !tbaa !21
  call void @llvm.lifetime.start.p0(i64 4, ptr %6) #3
  %11 = getelementptr inbounds nuw %"class.google::protobuf::internal::MapFieldBase", ptr %7, i32 0, i32 4
  %12 = call noundef i32 @_ZNKSt6atomicIN6google8protobuf8internal12MapFieldBase5StateEE4loadESt12memory_order(ptr noundef nonnull align 4 dereferenceable(4) %11, i32 noundef 0) #3
  store i32 %12, ptr %6, align 4, !tbaa !21
  %13 = load ptr, ptr %4, align 8, !tbaa !8
  %14 = getelementptr inbounds nuw %"class.google::protobuf::internal::MapFieldBase", ptr %13, i32 0, i32 4
  %15 = load i32, ptr %6, align 4, !tbaa !21
  call void @_ZNSt6atomicIN6google8protobuf8internal12MapFieldBase5StateEE5storeES4_St12memory_order(ptr noundef nonnull align 4 dereferenceable(4) %14, i32 noundef %15, i32 noundef 0) #3
  %16 = getelementptr inbounds nuw %"class.google::protobuf::internal::MapFieldBase", ptr %7, i32 0, i32 4
  %17 = load i32, ptr %5, align 4, !tbaa !21
  call void @_ZNSt6atomicIN6google8protobuf8internal12MapFieldBase5StateEE5storeES4_St12memory_order(ptr noundef nonnull align 4 dereferenceable(4) %16, i32 noundef %17, i32 noundef 0) #3
  call void @llvm.lifetime.end.p0(i64 4, ptr %6) #3
  call void @llvm.lifetime.end.p0(i64 4, ptr %5) #3
  ret void
}

; Function Attrs: inlinehint mustprogress nounwind uwtable
define linkonce_odr hidden void @_ZSt4swapIPN6google8protobuf16RepeatedPtrFieldINS1_7MessageEEEENSt9enable_ifIXsr6__and_ISt6__not_ISt15__is_tuple_likeIT_EESt21is_move_constructibleIS9_ESt18is_move_assignableIS9_EEE5valueEvE4typeERS9_SI_(ptr noundef nonnull align 8 dereferenceable(8) %0, ptr noundef nonnull align 8 dereferenceable(8) %1) #10 comdat {
  %3 = alloca ptr, align 8
  %4 = alloca ptr, align 8
  %5 = alloca ptr, align 8
  store ptr %0, ptr %3, align 8, !tbaa !27
  store ptr %1, ptr %4, align 8, !tbaa !27
  call void @llvm.lifetime.start.p0(i64 8, ptr %5) #3
  %6 = load ptr, ptr %3, align 8, !tbaa !27
  %7 = load ptr, ptr %6, align 8, !tbaa !3
  store ptr %7, ptr %5, align 8, !tbaa !3
  %8 = load ptr, ptr %4, align 8, !tbaa !27
  %9 = load ptr, ptr %8, align 8, !tbaa !3
  %10 = load ptr, ptr %3, align 8, !tbaa !27
  store ptr %9, ptr %10, align 8, !tbaa !3
  %11 = load ptr, ptr %5, align 8, !tbaa !3
  %12 = load ptr, ptr %4, align 8, !tbaa !27
  store ptr %11, ptr %12, align 8, !tbaa !3
  call void @llvm.lifetime.end.p0(i64 8, ptr %5) #3
  ret void
}

; Function Attrs: inlinehint mustprogress nounwind uwtable
define linkonce_odr hidden void @_ZSt4swapIPN6google8protobuf5ArenaEENSt9enable_ifIXsr6__and_ISt6__not_ISt15__is_tuple_likeIT_EESt21is_move_constructibleIS7_ESt18is_move_assignableIS7_EEE5valueEvE4typeERS7_SG_(ptr noundef nonnull align 8 dereferenceable(8) %0, ptr noundef nonnull align 8 dereferenceable(8) %1) #10 comdat {
  %3 = alloca ptr, align 8
  %4 = alloca ptr, align 8
  %5 = alloca ptr, align 8
  store ptr %0, ptr %3, align 8, !tbaa !35
  store ptr %1, ptr %4, align 8, !tbaa !35
  call void @llvm.lifetime.start.p0(i64 8, ptr %5) #3
  %6 = load ptr, ptr %3, align 8, !tbaa !35
  %7 = load ptr, ptr %6, align 8, !tbaa !30
  store ptr %7, ptr %5, align 8, !tbaa !30
  %8 = load ptr, ptr %4, align 8, !tbaa !35
  %9 = load ptr, ptr %8, align 8, !tbaa !30
  %10 = load ptr, ptr %3, align 8, !tbaa !35
  store ptr %9, ptr %10, align 8, !tbaa !30
  %11 = load ptr, ptr %5, align 8, !tbaa !30
  %12 = load ptr, ptr %4, align 8, !tbaa !35
  store ptr %11, ptr %12, align 8, !tbaa !30
  call void @llvm.lifetime.end.p0(i64 8, ptr %5) #3
  ret void
}

; Function Attrs: mustprogress nounwind uwtable
define hidden void @_ZN6google8protobuf8internal12MapFieldBase12InternalSwapEPS2_(ptr noundef nonnull align 8 dereferenceable(68) %0, ptr noundef %1) #4 align 2 {
  %3 = alloca ptr, align 8
  %4 = alloca ptr, align 8
  store ptr %0, ptr %3, align 8, !tbaa !8
  store ptr %1, ptr %4, align 8, !tbaa !8
  %5 = load ptr, ptr %3, align 8
  %6 = getelementptr inbounds nuw %"class.google::protobuf::internal::MapFieldBase", ptr %5, i32 0, i32 1
  %7 = load ptr, ptr %4, align 8, !tbaa !8
  %8 = getelementptr inbounds nuw %"class.google::protobuf::internal::MapFieldBase", ptr %7, i32 0, i32 1
  call void @_ZSt4swapIPN6google8protobuf5ArenaEENSt9enable_ifIXsr6__and_ISt6__not_ISt15__is_tuple_likeIT_EESt21is_move_constructibleIS7_ESt18is_move_assignableIS7_EEE5valueEvE4typeERS7_SG_(ptr noundef nonnull align 8 dereferenceable(8) %6, ptr noundef nonnull align 8 dereferenceable(8) %8) #3
  %9 = getelementptr inbounds nuw %"class.google::protobuf::internal::MapFieldBase", ptr %5, i32 0, i32 2
  %10 = load ptr, ptr %4, align 8, !tbaa !8
  %11 = getelementptr inbounds nuw %"class.google::protobuf::internal::MapFieldBase", ptr %10, i32 0, i32 2
  call void @_ZSt4swapIPN6google8protobuf16RepeatedPtrFieldINS1_7MessageEEEENSt9enable_ifIXsr6__and_ISt6__not_ISt15__is_tuple_likeIT_EESt21is_move_constructibleIS9_ESt18is_move_assignableIS9_EEE5valueEvE4typeERS9_SI_(ptr noundef nonnull align 8 dereferenceable(8) %9, ptr noundef nonnull align 8 dereferenceable(8) %11) #3
  %12 = load ptr, ptr %4, align 8, !tbaa !8
  call void @_ZN6google8protobuf8internal12MapFieldBase9SwapStateEPS2_(ptr noundef nonnull align 8 dereferenceable(68) %5, ptr noundef %12)
  ret void
}