; Function Attrs: mustprogress nofree norecurse nounwind willreturn memory(argmem: readwrite) uwtable
define hidden void @_ZN6google8protobuf8internal12MapFieldBase12InternalSwapEPS2_(ptr noundef nonnull align 8 captures(none) dereferenceable(68) %0, ptr noundef captures(none) %1) local_unnamed_addr #7 align 2 {
  %3 = getelementptr inbounds nuw i8, ptr %0, i64 8
  %4 = getelementptr inbounds nuw i8, ptr %1, i64 8
  %5 = load ptr, ptr %3, align 8, !tbaa !47
  %6 = load ptr, ptr %4, align 8, !tbaa !47
  store ptr %6, ptr %3, align 8, !tbaa !47
  store ptr %5, ptr %4, align 8, !tbaa !47
  %7 = getelementptr inbounds nuw i8, ptr %0, i64 16
  %8 = getelementptr inbounds nuw i8, ptr %1, i64 16
  %9 = load ptr, ptr %7, align 8, !tbaa !25
  %10 = load ptr, ptr %8, align 8, !tbaa !25
  store ptr %10, ptr %7, align 8, !tbaa !25
  store ptr %9, ptr %8, align 8, !tbaa !25
  %11 = getelementptr inbounds nuw i8, ptr %1, i64 64
  %12 = load atomic i32, ptr %11 monotonic, align 4
  %13 = getelementptr inbounds nuw i8, ptr %0, i64 64
  %14 = load atomic i32, ptr %13 monotonic, align 8
  store atomic i32 %14, ptr %11 monotonic, align 4
  store atomic i32 %12, ptr %13 monotonic, align 8
  ret void
}